; Function Attrs: mustprogress nofree norecurse nosync nounwind null_pointer_is_valid sspstrong willreturn memory(argmem: readwrite) uwtable
define internal noundef ptr @lcid_drb_mapping_copy_cb(ptr noundef returned writeonly captures(ret: address, provenance) initializes((0, 2), (4, 12)) %0, ptr noundef readonly captures(none) %1, i64 %2) #6 {
  %4 = load i16, ptr %1, align 4
  store i16 %4, ptr %0, align 4
  %5 = getelementptr inbounds nuw i8, ptr %1, i64 4
  %6 = load i32, ptr %5, align 4
  %7 = getelementptr inbounds nuw i8, ptr %0, i64 4
  store i32 %6, ptr %7, align 4
  %8 = getelementptr inbounds nuw i8, ptr %1, i64 8
  %9 = load i32, ptr %8, align 4
  %10 = getelementptr inbounds nuw i8, ptr %0, i64 8
  store i32 %9, ptr %10, align 4
  ret ptr %0
}